; Function Attrs: mustprogress null_pointer_is_valid sspstrong uwtable
define void @_ZNK10PrefsModel5indexEiiRK11QModelIndex(ptr dead_on_unwind noalias writable writeonly sret(%class.QModelIndex) align 8 captures(none) %0, ptr noundef align 8 dereferenceable_or_null(24) %1, i32 noundef %2, i32 noundef %3, ptr noundef align 8 dereferenceable(24) %4) unnamed_addr #0 align 2 personality ptr @__gxx_personality_v0 {
  %6 = alloca %class.QVariant, align 8
  %7 = alloca %class.QVariant, align 8
  %8 = tail call noundef zeroext i1 @_ZNK18QAbstractItemModel8hasIndexEiiRK11QModelIndex(ptr noundef align 8 dereferenceable_or_null(16) %1, i32 noundef %2, i32 noundef %3, ptr noundef align 8 dereferenceable(24) %4)
  br i1 %8, label %12, label %9

9:                                                ; preds = %5
  store i32 -1, ptr %0, align 8
  %10 = getelementptr inbounds nuw i8, ptr %0, i64 4
  store i32 -1, ptr %10, align 4
  %11 = getelementptr inbounds nuw i8, ptr %0, i64 8
  tail call void @llvm.memset.p0.i64(ptr noundef nonnull align 8 dereferenceable(16) %11, i8 0, i64 16, i1 false)
  br label %50

12:                                               ; preds = %5
  %13 = load i32, ptr %4, align 8
  %14 = icmp sgt i32 %13, -1
  %15 = getelementptr inbounds nuw i8, ptr %4, i64 4
  %16 = load i32, ptr %15, align 4
  %17 = icmp sgt i32 %16, -1
  %or.cond = select i1 %14, i1 %17, i1 false
  %18 = getelementptr inbounds nuw i8, ptr %4, i64 16
  %19 = load ptr, ptr %18, align 8
  %20 = icmp ne ptr %19, null
  %or.cond16 = select i1 %or.cond, i1 %20, i1 false
  br i1 %or.cond16, label %23, label %_ZNK11QModelIndex7isValidEv.exit.thread

_ZNK11QModelIndex7isValidEv.exit.thread:          ; preds = %12
  %21 = getelementptr inbounds nuw i8, ptr %1, i64 16
  %22 = load ptr, ptr %21, align 8
  br label %27

23:                                               ; preds = %12
  %24 = getelementptr inbounds nuw i8, ptr %4, i64 8
  %25 = load i64, ptr %24, align 8
  %26 = inttoptr i64 %25 to ptr
  br label %27

27:                                               ; preds = %23, %_ZNK11QModelIndex7isValidEv.exit.thread
  %.0 = phi ptr [ %26, %23 ], [ %22, %_ZNK11QModelIndex7isValidEv.exit.thread ]
  call void @llvm.lifetime.start.p0(i64 32, ptr nonnull %7)
  %28 = sext i32 %2 to i64
  call void @llvm.lifetime.start.p0(i64 32, ptr nonnull %6) #26, !noalias !47
  call void @llvm.memset.p0.i64(ptr noundef nonnull align 8 dereferenceable(32) %6, i8 0, i64 24, i1 false), !noalias !47
  %29 = getelementptr inbounds nuw i8, ptr %6, i64 24
  store i64 2, ptr %29, align 8, !noalias !47
  %30 = getelementptr inbounds nuw i8, ptr %.0, i64 32
  %31 = load i64, ptr %30, align 8, !noalias !50
  %32 = icmp ugt i64 %31, %28
  br i1 %32, label %33, label %37

33:                                               ; preds = %27
  %34 = getelementptr inbounds nuw i8, ptr %.0, i64 24
  %35 = load ptr, ptr %34, align 8, !noalias !50
  %36 = getelementptr %class.QVariant, ptr %35, i64 %28
  br label %37

37:                                               ; preds = %33, %27
  %38 = phi ptr [ %36, %33 ], [ %6, %27 ]
  invoke void @_ZN8QVariantC1ERKS_(ptr noundef nonnull align 8 dereferenceable_or_null(32) %7, ptr noundef align 8 dereferenceable(32) %38)
          to label %_ZNK5QListI8QVariantE5valueEx.exit.i unwind label %39

common.resume.i:                                  ; preds = %42, %39
  %common.resume.op.i = phi { ptr, i32 } [ %40, %39 ], [ %43, %42 ]
  resume { ptr, i32 } %common.resume.op.i

39:                                               ; preds = %37
  %40 = landingpad { ptr, i32 }
          cleanup
  call void @_ZN8QVariantD1Ev(ptr noundef nonnull align 8 dereferenceable_or_null(32) %6) #26
  call void @llvm.lifetime.end.p0(i64 32, ptr nonnull %6) #26, !noalias !47
  br label %common.resume.i

_ZNK5QListI8QVariantE5valueEx.exit.i:             ; preds = %37
  call void @_ZN8QVariantD1Ev(ptr noundef nonnull align 8 dereferenceable_or_null(32) %6) #26
  call void @llvm.lifetime.end.p0(i64 32, ptr nonnull %6) #26, !noalias !47
  %41 = invoke noundef ptr @_ZN14VariantPointerI9PrefsItemE5asPtrE8QVariant(ptr noundef nonnull %7)
          to label %_ZN19ModelHelperTreeItemI9PrefsItemE5childEi.exit unwind label %42

42:                                               ; preds = %_ZNK5QListI8QVariantE5valueEx.exit.i
  %43 = landingpad { ptr, i32 }
          cleanup
  call void @_ZN8QVariantD1Ev(ptr noundef nonnull align 8 dereferenceable_or_null(32) %7) #26
  br label %common.resume.i

_ZN19ModelHelperTreeItemI9PrefsItemE5childEi.exit: ; preds = %_ZNK5QListI8QVariantE5valueEx.exit.i
  call void @_ZN8QVariantD1Ev(ptr noundef nonnull align 8 dereferenceable_or_null(32) %7) #26
  call void @llvm.lifetime.end.p0(i64 32, ptr nonnull %7)
  %.not = icmp eq ptr %41, null
  %44 = getelementptr inbounds nuw i8, ptr %0, i64 4
  %45 = getelementptr inbounds nuw i8, ptr %0, i64 8
  br i1 %.not, label %49, label %46

46:                                               ; preds = %_ZN19ModelHelperTreeItemI9PrefsItemE5childEi.exit
  store i32 %2, ptr %0, align 8, !alias.scope !53
  store i32 %3, ptr %44, align 4, !alias.scope !53
  %47 = ptrtoint ptr %41 to i64
  store i64 %47, ptr %45, align 8, !alias.scope !53
  %48 = getelementptr inbounds nuw i8, ptr %0, i64 16
  store ptr %1, ptr %48, align 8, !alias.scope !53
  br label %50

49:                                               ; preds = %_ZN19ModelHelperTreeItemI9PrefsItemE5childEi.exit
  store i32 -1, ptr %0, align 8
  store i32 -1, ptr %44, align 4
  call void @llvm.memset.p0.i64(ptr noundef nonnull align 8 dereferenceable(16) %45, i8 0, i64 16, i1 false)
  br label %50

50:                                               ; preds = %46, %49, %9
  ret void
}